target datalayout = "e-m:e-p270:32:32-p271:32:32-p272:64:64-i64:64-i128:128-f80:128-n8:16:32:64-S128"
target triple = "x86_64-pc-linux-gnu"

%struct.commit_array = type { ptr, i64, i64 }

@the_repository = external global ptr, align 8
@.str.19 = private unnamed_addr constant [27 x i8] c"size_t overflow: %lu * %lu\00", align 1

; Function Attrs: inlinehint nounwind uwtable
define internal i64 @st_mult(i64 noundef %0, i64 noundef %1) #3 {
  %3 = alloca i64, align 8
  %4 = alloca i64, align 8
  store i64 %0, ptr %3, align 8, !tbaa !56
  store i64 %1, ptr %4, align 8, !tbaa !56
  %5 = load i64, ptr %3, align 8, !tbaa !56
  %6 = icmp ne i64 %5, 0
  br i1 %6, label %7, label %15

7:                                                ; preds = %2
  %8 = load i64, ptr %4, align 8, !tbaa !56
  %9 = load i64, ptr %3, align 8, !tbaa !56
  %10 = udiv i64 -1, %9
  %11 = icmp ugt i64 %8, %10
  br i1 %11, label %12, label %15

12:                                               ; preds = %7
  %13 = load i64, ptr %3, align 8, !tbaa !56
  %14 = load i64, ptr %4, align 8, !tbaa !56
  call void (ptr, ...) @die(ptr noundef @.str.19, i64 noundef %13, i64 noundef %14) #11
  unreachable

15:                                               ; preds = %7, %2
  %16 = load i64, ptr %3, align 8, !tbaa !56
  %17 = load i64, ptr %4, align 8, !tbaa !56
  %18 = mul i64 %16, %17
  ret i64 %18
}

; Function Attrs: nounwind uwtable
define internal i32 @add_ref(ptr noundef %0, ptr noundef %1, ptr noundef %2, i32 noundef %3, ptr noundef %4) #0 {
  %6 = alloca ptr, align 8
  %7 = alloca ptr, align 8
  %8 = alloca ptr, align 8
  %9 = alloca i32, align 4
  %10 = alloca ptr, align 8
  %11 = alloca ptr, align 8
  store ptr %0, ptr %6, align 8, !tbaa !9
  store ptr %1, ptr %7, align 8, !tbaa !9
  store ptr %2, ptr %8, align 8, !tbaa !40
  store i32 %3, ptr %9, align 4, !tbaa !11
  store ptr %4, ptr %10, align 8, !tbaa !55
  call void @llvm.lifetime.start.p0(i64 8, ptr %11) #12
  %12 = load ptr, ptr %10, align 8, !tbaa !55
  store ptr %12, ptr %11, align 8, !tbaa !184
  br label %13

13:                                               ; preds = %5
  %14 = load ptr, ptr %11, align 8, !tbaa !184
  %15 = getelementptr inbounds nuw %struct.commit_array, ptr %14, i32 0, i32 1
  %16 = load i64, ptr %15, align 8, !tbaa !174
  %17 = add i64 %16, 1
  %18 = load ptr, ptr %11, align 8, !tbaa !184
  %19 = getelementptr inbounds nuw %struct.commit_array, ptr %18, i32 0, i32 2
  %20 = load i64, ptr %19, align 8, !tbaa !186
  %21 = icmp ugt i64 %17, %20
  br i1 %21, label %22, label %61

22:                                               ; preds = %13
  %23 = load ptr, ptr %11, align 8, !tbaa !184
  %24 = getelementptr inbounds nuw %struct.commit_array, ptr %23, i32 0, i32 2
  %25 = load i64, ptr %24, align 8, !tbaa !186
  %26 = add i64 %25, 16
  %27 = mul i64 %26, 3
  %28 = udiv i64 %27, 2
  %29 = load ptr, ptr %11, align 8, !tbaa !184
  %30 = getelementptr inbounds nuw %struct.commit_array, ptr %29, i32 0, i32 1
  %31 = load i64, ptr %30, align 8, !tbaa !174
  %32 = add i64 %31, 1
  %33 = icmp ult i64 %28, %32
  br i1 %33, label %34, label %41

34:                                               ; preds = %22
  %35 = load ptr, ptr %11, align 8, !tbaa !184
  %36 = getelementptr inbounds nuw %struct.commit_array, ptr %35, i32 0, i32 1
  %37 = load i64, ptr %36, align 8, !tbaa !174
  %38 = add i64 %37, 1
  %39 = load ptr, ptr %11, align 8, !tbaa !184
  %40 = getelementptr inbounds nuw %struct.commit_array, ptr %39, i32 0, i32 2
  store i64 %38, ptr %40, align 8, !tbaa !186
  br label %50

41:                                               ; preds = %22
  %42 = load ptr, ptr %11, align 8, !tbaa !184
  %43 = getelementptr inbounds nuw %struct.commit_array, ptr %42, i32 0, i32 2
  %44 = load i64, ptr %43, align 8, !tbaa !186
  %45 = add i64 %44, 16
  %46 = mul i64 %45, 3
  %47 = udiv i64 %46, 2
  %48 = load ptr, ptr %11, align 8, !tbaa !184
  %49 = getelementptr inbounds nuw %struct.commit_array, ptr %48, i32 0, i32 2
  store i64 %47, ptr %49, align 8, !tbaa !186
  br label %50

50:                                               ; preds = %41, %34
  %51 = load ptr, ptr %11, align 8, !tbaa !184
  %52 = getelementptr inbounds nuw %struct.commit_array, ptr %51, i32 0, i32 0
  %53 = load ptr, ptr %52, align 8, !tbaa !176
  %54 = load ptr, ptr %11, align 8, !tbaa !184
  %55 = getelementptr inbounds nuw %struct.commit_array, ptr %54, i32 0, i32 2
  %56 = load i64, ptr %55, align 8, !tbaa !186
  %57 = call i64 @st_mult(i64 noundef 8, i64 noundef %56)
  %58 = call ptr @xrealloc(ptr noundef %53, i64 noundef %57)
  %59 = load ptr, ptr %11, align 8, !tbaa !184
  %60 = getelementptr inbounds nuw %struct.commit_array, ptr %59, i32 0, i32 0
  store ptr %58, ptr %60, align 8, !tbaa !176
  br label %61

61:                                               ; preds = %50, %13
  br label %62

62:                                               ; preds = %61
  br label %63

63:                                               ; preds = %62
  %64 = load ptr, ptr @the_repository, align 8, !tbaa !4
  %65 = load ptr, ptr %8, align 8, !tbaa !40
  %66 = call ptr @lookup_commit_reference_gently(ptr noundef %64, ptr noundef %65, i32 noundef 1)
  %67 = load ptr, ptr %11, align 8, !tbaa !184
  %68 = getelementptr inbounds nuw %struct.commit_array, ptr %67, i32 0, i32 0
  %69 = load ptr, ptr %68, align 8, !tbaa !176
  %70 = load ptr, ptr %11, align 8, !tbaa !184
  %71 = getelementptr inbounds nuw %struct.commit_array, ptr %70, i32 0, i32 1
  %72 = load i64, ptr %71, align 8, !tbaa !174
  %73 = getelementptr inbounds nuw ptr, ptr %69, i64 %72
  store ptr %66, ptr %73, align 8, !tbaa !44
  %74 = load ptr, ptr %11, align 8, !tbaa !184
  %75 = getelementptr inbounds nuw %struct.commit_array, ptr %74, i32 0, i32 0
  %76 = load ptr, ptr %75, align 8, !tbaa !176
  %77 = load ptr, ptr %11, align 8, !tbaa !184
  %78 = getelementptr inbounds nuw %struct.commit_array, ptr %77, i32 0, i32 1
  %79 = load i64, ptr %78, align 8, !tbaa !174
  %80 = getelementptr inbounds nuw ptr, ptr %76, i64 %79
  %81 = load ptr, ptr %80, align 8, !tbaa !44
  %82 = icmp ne ptr %81, null
  br i1 %82, label %83, label %88

83:                                               ; preds = %63
  %84 = load ptr, ptr %11, align 8, !tbaa !184
  %85 = getelementptr inbounds nuw %struct.commit_array, ptr %84, i32 0, i32 1
  %86 = load i64, ptr %85, align 8, !tbaa !174
  %87 = add i64 %86, 1
  store i64 %87, ptr %85, align 8, !tbaa !174
  br label %88

88:                                               ; preds = %83, %63
  call void @llvm.lifetime.end.p0(i64 8, ptr %11) #12
  ret i32 0
}