; Function Attrs: nounwind uwtable
define internal noundef i32 @add_ref(ptr readnone captures(none) %0, ptr readnone captures(none) %1, ptr noundef %2, i32 %3, ptr noundef captures(none) %4) #0 {
  %6 = getelementptr inbounds nuw i8, ptr %4, i64 8
  %7 = load i64, ptr %6, align 8, !tbaa !137
  %8 = add i64 %7, 1
  %9 = getelementptr inbounds nuw i8, ptr %4, i64 16
  %10 = load i64, ptr %9, align 8, !tbaa !146
  %11 = icmp ugt i64 %8, %10
  br i1 %11, label %12, label %20

12:                                               ; preds = %5
  %13 = mul i64 %10, 3
  %14 = add i64 %13, 48
  %15 = lshr i64 %14, 1
  %. = tail call i64 @llvm.umax.i64(i64 %15, i64 %8)
  store i64 %., ptr %9, align 8, !tbaa !146
  %mul.ov.i = icmp ugt i64 %., 2305843009213693951
  br i1 %mul.ov.i, label %16, label %st_mult.exit

16:                                               ; preds = %12
  tail call void (ptr, ...) @die(ptr noundef nonnull @.str.19, i64 noundef 8, i64 noundef %.) #14
  unreachable

st_mult.exit:                                     ; preds = %12
  %17 = load ptr, ptr %4, align 8, !tbaa !139
  %18 = shl nuw i64 %., 3
  %19 = tail call ptr @xrealloc(ptr noundef %17, i64 noundef %18) #15
  store ptr %19, ptr %4, align 8, !tbaa !139
  br label %20

20:                                               ; preds = %st_mult.exit, %5
  %21 = load ptr, ptr @the_repository, align 8, !tbaa !45
  %22 = tail call ptr @lookup_commit_reference_gently(ptr noundef %21, ptr noundef %2, i32 noundef 1) #15
  %23 = load ptr, ptr %4, align 8, !tbaa !139
  %24 = load i64, ptr %6, align 8, !tbaa !137
  %25 = getelementptr inbounds nuw ptr, ptr %23, i64 %24
  store ptr %22, ptr %25, align 8, !tbaa !147
  %.not = icmp eq ptr %22, null
  br i1 %.not, label %28, label %26

26:                                               ; preds = %20
  %27 = add i64 %24, 1
  store i64 %27, ptr %6, align 8, !tbaa !137
  br label %28

28:                                               ; preds = %26, %20
  ret i32 0
}